target datalayout = "e-m:e-p270:32:32-p271:32:32-p272:64:64-i64:64-i128:128-f80:128-n8:16:32:64-S128"
target triple = "x86_64-pc-linux-gnu"

%struct.mbedtls_ecp_group = type { i32, %struct.mbedtls_mpi, %struct.mbedtls_mpi, %struct.mbedtls_mpi, %struct.mbedtls_ecp_point, %struct.mbedtls_mpi, i64, i64, i32, ptr, ptr, ptr, ptr, ptr, i64 }
%struct.mbedtls_ecp_point = type { %struct.mbedtls_mpi, %struct.mbedtls_mpi, %struct.mbedtls_mpi }
%struct.mbedtls_mpi = type { ptr, i16, i16 }
%struct.mbedtls_ecp_keypair = type { %struct.mbedtls_ecp_group, %struct.mbedtls_mpi, %struct.mbedtls_ecp_point }

; Function Attrs: nounwind uwtable
define hidden void @mbedtls_ecp_point_free(ptr noundef %0) #0 {
  %2 = alloca ptr, align 8
  store ptr %0, ptr %2, align 8, !tbaa !34
  %3 = load ptr, ptr %2, align 8, !tbaa !34
  %4 = icmp eq ptr %3, null
  br i1 %4, label %5, label %6

5:                                                ; preds = %1
  br label %13

6:                                                ; preds = %1
  %7 = load ptr, ptr %2, align 8, !tbaa !34
  %8 = getelementptr inbounds nuw %struct.mbedtls_ecp_point, ptr %7, i32 0, i32 0
  call void @mbedtls_mpi_free(ptr noundef %8)
  %9 = load ptr, ptr %2, align 8, !tbaa !34
  %10 = getelementptr inbounds nuw %struct.mbedtls_ecp_point, ptr %9, i32 0, i32 1
  call void @mbedtls_mpi_free(ptr noundef %10)
  %11 = load ptr, ptr %2, align 8, !tbaa !34
  %12 = getelementptr inbounds nuw %struct.mbedtls_ecp_point, ptr %11, i32 0, i32 2
  call void @mbedtls_mpi_free(ptr noundef %12)
  br label %13

13:                                               ; preds = %6, %5
  ret void
}

; Function Attrs: nounwind uwtable
define hidden void @mbedtls_ecp_keypair_free(ptr noundef %0) #0 {
  %2 = alloca ptr, align 8
  store ptr %0, ptr %2, align 8, !tbaa !45
  %3 = load ptr, ptr %2, align 8, !tbaa !45
  %4 = icmp eq ptr %3, null
  br i1 %4, label %5, label %6

5:                                                ; preds = %1
  br label %13

6:                                                ; preds = %1
  %7 = load ptr, ptr %2, align 8, !tbaa !45
  %8 = getelementptr inbounds nuw %struct.mbedtls_ecp_keypair, ptr %7, i32 0, i32 0
  call void @mbedtls_ecp_group_free(ptr noundef %8)
  %9 = load ptr, ptr %2, align 8, !tbaa !45
  %10 = getelementptr inbounds nuw %struct.mbedtls_ecp_keypair, ptr %9, i32 0, i32 1
  call void @mbedtls_mpi_free(ptr noundef %10)
  %11 = load ptr, ptr %2, align 8, !tbaa !45
  %12 = getelementptr inbounds nuw %struct.mbedtls_ecp_keypair, ptr %11, i32 0, i32 2
  call void @mbedtls_ecp_point_free(ptr noundef %12)
  br label %13

13:                                               ; preds = %6, %5
  ret void
}