; Function Attrs: nounwind uwtable
define hidden void @mbedtls_ecp_keypair_free(ptr noundef %0) local_unnamed_addr #7 {
  %2 = icmp eq ptr %0, null
  br i1 %2, label %8, label %3

3:                                                ; preds = %1
  tail call void @mbedtls_ecp_group_free(ptr noundef nonnull %0)
  %4 = getelementptr inbounds nuw i8, ptr %0, i64 192
  tail call void @mbedtls_mpi_free(ptr noundef nonnull %4) #21
  %5 = getelementptr inbounds nuw i8, ptr %0, i64 208
  tail call void @mbedtls_mpi_free(ptr noundef nonnull %5) #21
  %6 = getelementptr inbounds nuw i8, ptr %0, i64 224
  tail call void @mbedtls_mpi_free(ptr noundef nonnull %6) #21
  %7 = getelementptr inbounds nuw i8, ptr %0, i64 240
  tail call void @mbedtls_mpi_free(ptr noundef nonnull %7) #21
  br label %8

8:                                                ; preds = %1, %3
  ret void
}